target datalayout = "e-m:e-p270:32:32-p271:32:32-p272:64:64-i64:64-i128:128-f80:128-n8:16:32:64-S128"
target triple = "x86_64-pc-linux-gnu"

%"class.icu_77::Calendar" = type <{ %"class.icu_77::UObject", [24 x i32], [24 x i8], i8, [7 x i8], double, ptr, i8, i16, i8, i32, i32, i32, i8, i8, i16, [4 x i8], ptr, ptr }>
%"class.icu_77::UObject" = type { ptr }
%"struct.icu_77::ChineseCalendar::Setting" = type { i32, ptr, ptr, ptr }

; Function Attrs: inlinehint mustprogress nounwind uwtable
define linkonce_odr noundef i32 @_ZNK6icu_778Calendar11internalGetE19UCalendarDateFieldsi(ptr noundef nonnull align 8 dereferenceable(192) %0, i32 noundef %1, i32 noundef %2) #4 comdat align 2 {
  %4 = alloca ptr, align 8
  %5 = alloca i32, align 4
  %6 = alloca i32, align 4
  store ptr %0, ptr %4, align 8, !tbaa !36
  store i32 %1, ptr %5, align 4, !tbaa !25
  store i32 %2, ptr %6, align 4, !tbaa !29
  %7 = load ptr, ptr %4, align 8
  %8 = getelementptr inbounds nuw %"class.icu_77::Calendar", ptr %7, i32 0, i32 2
  %9 = load i32, ptr %5, align 4, !tbaa !25
  %10 = zext i32 %9 to i64
  %11 = getelementptr inbounds nuw [24 x i8], ptr %8, i64 0, i64 %10
  %12 = load i8, ptr %11, align 1, !tbaa !38
  %13 = sext i8 %12 to i32
  %14 = icmp sgt i32 %13, 0
  br i1 %14, label %15, label %21

15:                                               ; preds = %3
  %16 = getelementptr inbounds nuw %"class.icu_77::Calendar", ptr %7, i32 0, i32 1
  %17 = load i32, ptr %5, align 4, !tbaa !25
  %18 = zext i32 %17 to i64
  %19 = getelementptr inbounds nuw [24 x i32], ptr %16, i64 0, i64 %18
  %20 = load i32, ptr %19, align 4, !tbaa !29
  br label %23

21:                                               ; preds = %3
  %22 = load i32, ptr %6, align 4, !tbaa !29
  br label %23

23:                                               ; preds = %21, %15
  %24 = phi i32 [ %20, %15 ], [ %22, %21 ]
  ret i32 %24
}

; Function Attrs: inlinehint mustprogress nounwind uwtable
define internal noundef signext i8 @_ZL9U_FAILURE10UErrorCode(i32 noundef %0) #4 {
  %2 = alloca i32, align 4
  store i32 %0, ptr %2, align 4, !tbaa !30
  %3 = load i32, ptr %2, align 4, !tbaa !30
  %4 = icmp sgt i32 %3, 0
  %5 = zext i1 %4 to i8
  ret i8 %5
}

; Function Attrs: mustprogress uwtable
define noundef i32 @_ZN6icu_7715ChineseCalendar21handleGetExtendedYearER10UErrorCode(ptr noundef nonnull align 8 dereferenceable(193) %0, ptr noundef nonnull align 4 dereferenceable(4) %1) unnamed_addr #0 align 2 {
  %3 = alloca i32, align 4
  %4 = alloca ptr, align 8
  %5 = alloca ptr, align 8
  %6 = alloca i32, align 4
  %7 = alloca i32, align 4
  %8 = alloca %"struct.icu_77::ChineseCalendar::Setting", align 8
  %9 = alloca i32, align 4
  store ptr %0, ptr %4, align 8, !tbaa !3
  store ptr %1, ptr %5, align 8, !tbaa !10
  %10 = load ptr, ptr %4, align 8
  %11 = load ptr, ptr %5, align 8, !tbaa !10
  %12 = load i32, ptr %11, align 4, !tbaa !30
  %13 = call noundef signext i8 @_ZL9U_FAILURE10UErrorCode(i32 noundef %12)
  %14 = icmp ne i8 %13, 0
  br i1 %14, label %15, label %16

15:                                               ; preds = %2
  store i32 0, ptr %3, align 4
  br label %64

16:                                               ; preds = %2
  call void @llvm.lifetime.start.p0(i64 4, ptr %6) #13
  %17 = call noundef i32 @_ZNK6icu_778Calendar10newerFieldE19UCalendarDateFieldsS1_(ptr noundef nonnull align 8 dereferenceable(192) %10, i32 noundef 0, i32 noundef 1)
  %18 = call noundef i32 @_ZNK6icu_778Calendar10newerFieldE19UCalendarDateFieldsS1_(ptr noundef nonnull align 8 dereferenceable(192) %10, i32 noundef 19, i32 noundef %17)
  %19 = icmp eq i32 %18, 19
  br i1 %19, label %20, label %22

20:                                               ; preds = %16
  %21 = call noundef i32 @_ZNK6icu_778Calendar11internalGetE19UCalendarDateFieldsi(ptr noundef nonnull align 8 dereferenceable(192) %10, i32 noundef 19, i32 noundef 1)
  store i32 %21, ptr %6, align 4, !tbaa !29
  br label %61

22:                                               ; preds = %16
  call void @llvm.lifetime.start.p0(i64 4, ptr %7) #13
  %23 = call noundef i32 @_ZNK6icu_778Calendar11internalGetE19UCalendarDateFieldsi(ptr noundef nonnull align 8 dereferenceable(192) %10, i32 noundef 0, i32 noundef 1)
  store i32 %23, ptr %7, align 4, !tbaa !29
  %24 = call noundef i32 @_ZNK6icu_778Calendar11internalGetE19UCalendarDateFieldsi(ptr noundef nonnull align 8 dereferenceable(192) %10, i32 noundef 1, i32 noundef 1)
  store i32 %24, ptr %6, align 4, !tbaa !29
  call void @llvm.lifetime.start.p0(i64 32, ptr %8) #13
  %25 = load ptr, ptr %5, align 8, !tbaa !10
  %26 = load ptr, ptr %10, align 8, !tbaa !11
  %27 = getelementptr inbounds ptr, ptr %26, i64 57
  %28 = load ptr, ptr %27, align 8
  call void %28(ptr dead_on_unwind writable sret(%"struct.icu_77::ChineseCalendar::Setting") align 8 %8, ptr noundef nonnull align 8 dereferenceable(193) %10, ptr noundef nonnull align 4 dereferenceable(4) %25)
  %29 = load ptr, ptr %5, align 8, !tbaa !10
  %30 = load i32, ptr %29, align 4, !tbaa !30
  %31 = call noundef signext i8 @_ZL9U_FAILURE10UErrorCode(i32 noundef %30)
  %32 = icmp ne i8 %31, 0
  br i1 %32, label %33, label %34

33:                                               ; preds = %22
  store i32 0, ptr %3, align 4
  store i32 1, ptr %9, align 4
  br label %58

34:                                               ; preds = %22
  %35 = load i32, ptr %7, align 4, !tbaa !29
  %36 = call signext i8 @uprv_add32_overflow_77(i32 noundef %35, i32 noundef -1, ptr noundef %7)
  %37 = icmp ne i8 %36, 0
  br i1 %37, label %55, label %38

38:                                               ; preds = %34
  %39 = load i32, ptr %7, align 4, !tbaa !29
  %40 = call signext i8 @uprv_mul32_overflow_77(i32 noundef %39, i32 noundef 60, ptr noundef %7)
  %41 = icmp ne i8 %40, 0
  br i1 %41, label %55, label %42

42:                                               ; preds = %38
  %43 = load i32, ptr %6, align 4, !tbaa !29
  %44 = load i32, ptr %7, align 4, !tbaa !29
  %45 = call signext i8 @uprv_add32_overflow_77(i32 noundef %43, i32 noundef %44, ptr noundef %6)
  %46 = icmp ne i8 %45, 0
  br i1 %46, label %55, label %47

47:                                               ; preds = %42
  %48 = load i32, ptr %6, align 4, !tbaa !29
  %49 = getelementptr inbounds nuw %"struct.icu_77::ChineseCalendar::Setting", ptr %8, i32 0, i32 0
  %50 = load i32, ptr %49, align 8, !tbaa !32
  %51 = sub nsw i32 %50, -2636
  %52 = sub nsw i32 0, %51
  %53 = call signext i8 @uprv_add32_overflow_77(i32 noundef %48, i32 noundef %52, ptr noundef %6)
  %54 = icmp ne i8 %53, 0
  br i1 %54, label %55, label %57

55:                                               ; preds = %47, %42, %38, %34
  %56 = load ptr, ptr %5, align 8, !tbaa !10
  store i32 1, ptr %56, align 4, !tbaa !30
  store i32 0, ptr %3, align 4
  store i32 1, ptr %9, align 4
  br label %58

57:                                               ; preds = %47
  store i32 0, ptr %9, align 4
  br label %58

58:                                               ; preds = %57, %55, %33
  call void @llvm.lifetime.end.p0(i64 32, ptr %8) #13
  call void @llvm.lifetime.end.p0(i64 4, ptr %7) #13
  %59 = load i32, ptr %9, align 4
  switch i32 %59, label %63 [
    i32 0, label %60
  ]

60:                                               ; preds = %58
  br label %61

61:                                               ; preds = %60, %20
  %62 = load i32, ptr %6, align 4, !tbaa !29
  store i32 %62, ptr %3, align 4
  store i32 1, ptr %9, align 4
  br label %63

63:                                               ; preds = %61, %58
  call void @llvm.lifetime.end.p0(i64 4, ptr %6) #13
  br label %64

64:                                               ; preds = %63, %15
  %65 = load i32, ptr %3, align 4
  ret i32 %65
}