; Function Attrs: mustprogress uwtable
define noundef i32 @_ZN6icu_7715ChineseCalendar21handleGetExtendedYearER10UErrorCode(ptr noundef nonnull align 8 dereferenceable(193) %0, ptr noundef nonnull align 4 dereferenceable(4) %1) unnamed_addr #0 align 2 {
  %3 = alloca i32, align 4
  %4 = alloca i32, align 4
  %5 = alloca %"struct.icu_77::ChineseCalendar::Setting", align 8
  %6 = load i32, ptr %1, align 4, !tbaa !21
  %7 = icmp slt i32 %6, 1
  br i1 %7, label %8, label %51

8:                                                ; preds = %2
  call void @llvm.lifetime.start.p0(i64 4, ptr nonnull %3) #8
  %9 = tail call noundef i32 @_ZNK6icu_778Calendar10newerFieldE19UCalendarDateFieldsS1_(ptr noundef nonnull align 8 dereferenceable(192) %0, i32 noundef 0, i32 noundef 1)
  %10 = tail call noundef i32 @_ZNK6icu_778Calendar10newerFieldE19UCalendarDateFieldsS1_(ptr noundef nonnull align 8 dereferenceable(192) %0, i32 noundef 19, i32 noundef %9)
  %11 = icmp eq i32 %10, 19
  br i1 %11, label %_ZNK6icu_778Calendar11internalGetE19UCalendarDateFieldsi.exit, label %_ZNK6icu_778Calendar11internalGetE19UCalendarDateFieldsi.exit12

_ZNK6icu_778Calendar11internalGetE19UCalendarDateFieldsi.exit: ; preds = %8
  %12 = getelementptr inbounds nuw i8, ptr %0, i64 123
  %13 = load i8, ptr %12, align 1, !tbaa !23
  %14 = icmp sgt i8 %13, 0
  %15 = getelementptr inbounds nuw i8, ptr %0, i64 84
  %16 = load i32, ptr %15, align 4
  %17 = select i1 %14, i32 %16, i32 1
  br label %50

_ZNK6icu_778Calendar11internalGetE19UCalendarDateFieldsi.exit12: ; preds = %8
  call void @llvm.lifetime.start.p0(i64 4, ptr nonnull %4) #8
  %18 = getelementptr inbounds nuw i8, ptr %0, i64 104
  %19 = load i8, ptr %18, align 8, !tbaa !23
  %20 = icmp sgt i8 %19, 0
  %21 = getelementptr inbounds nuw i8, ptr %0, i64 8
  %22 = load i32, ptr %21, align 8
  %23 = select i1 %20, i32 %22, i32 1
  store i32 %23, ptr %4, align 4, !tbaa !20
  %24 = getelementptr inbounds nuw i8, ptr %0, i64 105
  %25 = load i8, ptr %24, align 1, !tbaa !23
  %26 = icmp sgt i8 %25, 0
  %27 = getelementptr inbounds nuw i8, ptr %0, i64 12
  %28 = load i32, ptr %27, align 4
  %29 = select i1 %26, i32 %28, i32 1
  store i32 %29, ptr %3, align 4, !tbaa !20
  call void @llvm.lifetime.start.p0(i64 32, ptr nonnull %5) #8
  %30 = load ptr, ptr %0, align 8, !tbaa !3
  %31 = getelementptr inbounds nuw i8, ptr %30, i64 456
  %32 = load ptr, ptr %31, align 8
  call void %32(ptr dead_on_unwind nonnull writable sret(%"struct.icu_77::ChineseCalendar::Setting") align 8 %5, ptr noundef nonnull align 8 dereferenceable(193) %0, ptr noundef nonnull align 4 dereferenceable(4) %1)
  %33 = load i32, ptr %1, align 4, !tbaa !21
  %34 = icmp slt i32 %33, 1
  br i1 %34, label %35, label %.critedge

35:                                               ; preds = %_ZNK6icu_778Calendar11internalGetE19UCalendarDateFieldsi.exit12
  %36 = call signext i8 @uprv_add32_overflow_77(i32 noundef %23, i32 noundef -1, ptr noundef nonnull %4)
  %.not8 = icmp eq i8 %36, 0
  br i1 %.not8, label %37, label %48

37:                                               ; preds = %35
  %38 = load i32, ptr %4, align 4, !tbaa !20
  %39 = call signext i8 @uprv_mul32_overflow_77(i32 noundef %38, i32 noundef 60, ptr noundef nonnull %4)
  %.not9 = icmp eq i8 %39, 0
  br i1 %.not9, label %40, label %48

40:                                               ; preds = %37
  %41 = load i32, ptr %4, align 4, !tbaa !20
  %42 = call signext i8 @uprv_add32_overflow_77(i32 noundef %29, i32 noundef %41, ptr noundef nonnull %3)
  %.not10 = icmp eq i8 %42, 0
  br i1 %.not10, label %43, label %48

43:                                               ; preds = %40
  %44 = load i32, ptr %3, align 4, !tbaa !20
  %45 = load i32, ptr %5, align 8, !tbaa !24
  %46 = sub nsw i32 -2636, %45
  %47 = call signext i8 @uprv_add32_overflow_77(i32 noundef %44, i32 noundef %46, ptr noundef nonnull %3)
  %.not11 = icmp eq i8 %47, 0
  br i1 %.not11, label %49, label %48

48:                                               ; preds = %43, %40, %37, %35
  store i32 1, ptr %1, align 4, !tbaa !21
  br label %.critedge

49:                                               ; preds = %43
  call void @llvm.lifetime.end.p0(i64 32, ptr nonnull %5) #8
  call void @llvm.lifetime.end.p0(i64 4, ptr nonnull %4) #8
  %.pre = load i32, ptr %3, align 4, !tbaa !20
  br label %50

.critedge:                                        ; preds = %_ZNK6icu_778Calendar11internalGetE19UCalendarDateFieldsi.exit12, %48
  call void @llvm.lifetime.end.p0(i64 32, ptr nonnull %5) #8
  call void @llvm.lifetime.end.p0(i64 4, ptr nonnull %4) #8
  br label %50

50:                                               ; preds = %_ZNK6icu_778Calendar11internalGetE19UCalendarDateFieldsi.exit, %49, %.critedge
  %.2 = phi i32 [ 0, %.critedge ], [ %.pre, %49 ], [ %17, %_ZNK6icu_778Calendar11internalGetE19UCalendarDateFieldsi.exit ]
  call void @llvm.lifetime.end.p0(i64 4, ptr nonnull %3) #8
  br label %51

51:                                               ; preds = %2, %50
  %.06 = phi i32 [ %.2, %50 ], [ 0, %2 ]
  ret i32 %.06
}